; Function Attrs: cold nounwind optsize uwtable
define internal i32 @ff_tx_fft_init_int32_c(ptr noundef %0, ptr readnone captures(none) %1, i64 noundef %2, ptr readnone captures(none) %3, i32 noundef %4, i32 noundef %5, ptr noundef %6) #0 {
  %8 = alloca %struct.FFTXCodeletOptions, align 4
  %9 = and i64 %2, 1
  %.not = icmp eq i64 %9, 0
  call void @llvm.lifetime.start.p0(i64 4, ptr nonnull %8) #16
  %10 = select i1 %.not, i32 1, i32 2
  store i32 %10, ptr %8, align 4, !tbaa !58
  %11 = and i64 %2, 6917529027641081854
  %12 = or disjoint i64 %11, 2305843009213693953
  %13 = call i32 @ff_tx_init_subtx(ptr noundef %0, i32 noundef 4, i64 noundef %12, ptr noundef nonnull %8, i32 noundef %4, i32 noundef %5, ptr noundef %6) #16
  %.not17 = icmp eq i32 %13, 0
  br i1 %.not17, label %14, label %18

14:                                               ; preds = %7
  br i1 %.not, label %17, label %15

15:                                               ; preds = %14
  %16 = call i32 @ff_tx_gen_inplace_map(ptr noundef %0, i32 noundef %4) #16
  %.not18 = icmp eq i32 %16, 0
  br i1 %.not18, label %17, label %18

17:                                               ; preds = %15, %14
  br label %18

18:                                               ; preds = %15, %7, %17
  %.0 = phi i32 [ 0, %17 ], [ %13, %7 ], [ %16, %15 ]
  call void @llvm.lifetime.end.p0(i64 4, ptr nonnull %8) #16
  ret i32 %.0
}